#include <math.h>
#include <stdio.h>
#include <stdlib.h>
#include <string.h>

int main()
{
    int n,i,j,k;
    scanf("%d",&n);
    for(i=3;i<=n/2;i++)
    {
        for(j=2;j<i;j++)
            if(i%j==0) break;
        for(k=2;k<n-i;k++)
            if((n-i)%k==0) break;
        if(j==i && k==n-i)
           printf("%d %d\n",i,n-i);
    }
    getchar();
    getchar();
}