; ModuleID = 'source-C-CXX/42/1548.c'
source_filename = "source-C-CXX/42/1548.c"
target datalayout = "e-m:e-p270:32:32-p271:32:32-p272:64:64-i64:64-f80:128-n8:16:32:64-S128"
target triple = "x86_64-pc-linux-gnu"

%struct._IO_FILE = type { i32, i8*, i8*, i8*, i8*, i8*, i8*, i8*, i8*, i8*, i8*, i8*, %struct._IO_marker*, %struct._IO_FILE*, i32, i32, i64, i16, i8, [1 x i8], i8*, i64, %struct._IO_codecvt*, %struct._IO_wide_data*, %struct._IO_FILE*, i8*, i64, i32, [20 x i8] }
%struct._IO_marker = type opaque
%struct._IO_codecvt = type opaque
%struct._IO_wide_data = type opaque

@.str = private unnamed_addr constant [3 x i8] c"%d\00", align 1
@.str.1 = private unnamed_addr constant [7 x i8] c"%d %d\0A\00", align 1
@stdin = external local_unnamed_addr global %struct._IO_FILE*, align 8

; Function Attrs: nofree nounwind sspstrong uwtable
define dso_local i32 @main() local_unnamed_addr #0 {
  %1 = alloca i32, align 4
  %2 = bitcast i32* %1 to i8*
  call void @llvm.lifetime.start.p0i8(i64 4, i8* nonnull %2) #3
  %3 = call i32 (i8*, ...) @__isoc99_scanf(i8* getelementptr inbounds ([3 x i8], [3 x i8]* @.str, i64 0, i64 0), i32* nonnull %1)
  %4 = load i32, i32* %1, align 4, !tbaa !5
  %5 = icmp slt i32 %4, 6
  br i1 %5, label %44, label %6

6:                                                ; preds = %0, %38
  %7 = phi i32 [ %39, %38 ], [ %4, %0 ]
  %8 = phi i32 [ %43, %38 ], [ -3, %0 ]
  %9 = phi i32 [ %40, %38 ], [ 3, %0 ]
  br label %10

10:                                               ; preds = %6, %14
  %11 = phi i32 [ %15, %14 ], [ 2, %6 ]
  %12 = urem i32 %9, %11
  %13 = icmp eq i32 %12, 0
  br i1 %13, label %17, label %14

14:                                               ; preds = %10
  %15 = add nuw nsw i32 %11, 1
  %16 = icmp eq i32 %15, %9
  br i1 %16, label %17, label %10, !llvm.loop !9

17:                                               ; preds = %14, %10
  %18 = phi i32 [ %9, %14 ], [ %11, %10 ]
  %19 = sub nsw i32 %7, %9
  %20 = icmp sgt i32 %19, 2
  br i1 %20, label %21, label %30

21:                                               ; preds = %17
  %22 = add i32 %7, %8
  br label %23

23:                                               ; preds = %21, %27
  %24 = phi i32 [ %28, %27 ], [ 2, %21 ]
  %25 = srem i32 %19, %24
  %26 = icmp eq i32 %25, 0
  br i1 %26, label %30, label %27

27:                                               ; preds = %23
  %28 = add nuw nsw i32 %24, 1
  %29 = icmp eq i32 %28, %22
  br i1 %29, label %30, label %23, !llvm.loop !11

30:                                               ; preds = %27, %23, %17
  %31 = phi i32 [ 2, %17 ], [ %24, %23 ], [ %22, %27 ]
  %32 = icmp eq i32 %18, %9
  %33 = icmp eq i32 %31, %19
  %34 = select i1 %32, i1 %33, i1 false
  br i1 %34, label %35, label %38

35:                                               ; preds = %30
  %36 = call i32 (i8*, ...) @printf(i8* nonnull dereferenceable(1) getelementptr inbounds ([7 x i8], [7 x i8]* @.str.1, i64 0, i64 0), i32 %9, i32 %19)
  %37 = load i32, i32* %1, align 4, !tbaa !5
  br label %38

38:                                               ; preds = %30, %35
  %39 = phi i32 [ %7, %30 ], [ %37, %35 ]
  %40 = add nuw nsw i32 %9, 1
  %41 = sdiv i32 %39, 2
  %42 = icmp slt i32 %9, %41
  %43 = add nsw i32 %8, -1
  br i1 %42, label %6, label %44, !llvm.loop !12

44:                                               ; preds = %38, %0
  %45 = load %struct._IO_FILE*, %struct._IO_FILE** @stdin, align 8, !tbaa !13
  %46 = call i32 @getc(%struct._IO_FILE* %45) #3
  %47 = load %struct._IO_FILE*, %struct._IO_FILE** @stdin, align 8, !tbaa !13
  %48 = call i32 @getc(%struct._IO_FILE* %47) #3
  call void @llvm.lifetime.end.p0i8(i64 4, i8* nonnull %2) #3
  ret i32 0
}

; Function Attrs: argmemonly mustprogress nofree nosync nounwind willreturn
declare void @llvm.lifetime.start.p0i8(i64 immarg, i8* nocapture) #1

; Function Attrs: nofree nounwind
declare noundef i32 @__isoc99_scanf(i8* nocapture noundef readonly, ...) local_unnamed_addr #2

; Function Attrs: nofree nounwind
declare noundef i32 @printf(i8* nocapture noundef readonly, ...) local_unnamed_addr #2

; Function Attrs: argmemonly mustprogress nofree nosync nounwind willreturn
declare void @llvm.lifetime.end.p0i8(i64 immarg, i8* nocapture) #1

; Function Attrs: nofree nounwind
declare noundef i32 @getc(%struct._IO_FILE* nocapture noundef) local_unnamed_addr #2


!llvm.module.flags = !{!0, !1, !2, !3}
!llvm.ident = !{!4}

!0 = !{i32 1, !"wchar_size", i32 4}
!1 = !{i32 7, !"PIC Level", i32 2}
!2 = !{i32 7, !"PIE Level", i32 2}
!3 = !{i32 7, !"uwtable", i32 1}
!4 = !{!"clang version 13.0.0"}
!5 = !{!6, !6, i64 0}
!6 = !{!"int", !7, i64 0}
!7 = !{!"omnipotent char", !8, i64 0}
!8 = !{!"Simple C/C++ TBAA"}
!9 = distinct !{!9, !10}
!10 = !{!"llvm.loop.mustprogress"}
!11 = distinct !{!11, !10}
!12 = distinct !{!12, !10}
!13 = !{!14, !14, i64 0}
!14 = !{!"any pointer", !7, i64 0}
